target datalayout = "e-m:e-p270:32:32-p271:32:32-p272:64:64-i64:64-i128:128-f80:128-n8:16:32:64-S128"
target triple = "x86_64-pc-linux-gnu"

%struct.CharRange = type { i32, i32, ptr, ptr, ptr }

; Function Attrs: nounwind uwtable
define internal i32 @max_int(i32 noundef %0, i32 noundef %1) #0 {
  %3 = alloca i32, align 4
  %4 = alloca i32, align 4
  %5 = alloca i32, align 4
  store i32 %0, ptr %4, align 4
  store i32 %1, ptr %5, align 4
  %6 = load i32, ptr %4, align 4
  %7 = load i32, ptr %5, align 4
  %8 = icmp sgt i32 %6, %7
  br i1 %8, label %9, label %11

9:                                                ; preds = %2
  %10 = load i32, ptr %4, align 4
  store i32 %10, ptr %3, align 4
  br label %13

11:                                               ; preds = %2
  %12 = load i32, ptr %5, align 4
  store i32 %12, ptr %3, align 4
  br label %13

13:                                               ; preds = %11, %9
  %14 = load i32, ptr %3, align 4
  ret i32 %14
}

; Function Attrs: nounwind uwtable
define dso_local i32 @cr_realloc(ptr noundef %0, i32 noundef %1) #0 {
  %3 = alloca i32, align 4
  %4 = alloca ptr, align 8
  %5 = alloca i32, align 4
  %6 = alloca i32, align 4
  %7 = alloca ptr, align 8
  store ptr %0, ptr %4, align 8
  store i32 %1, ptr %5, align 4
  %8 = load i32, ptr %5, align 4
  %9 = load ptr, ptr %4, align 8
  %10 = getelementptr inbounds %struct.CharRange, ptr %9, i32 0, i32 1
  %11 = load i32, ptr %10, align 4
  %12 = icmp sgt i32 %8, %11
  br i1 %12, label %13, label %44

13:                                               ; preds = %2
  %14 = load i32, ptr %5, align 4
  %15 = load ptr, ptr %4, align 8
  %16 = getelementptr inbounds %struct.CharRange, ptr %15, i32 0, i32 1
  %17 = load i32, ptr %16, align 4
  %18 = mul i32 %17, 3
  %19 = sdiv i32 %18, 2
  %20 = call i32 @max_int(i32 noundef %14, i32 noundef %19)
  store i32 %20, ptr %6, align 4
  %21 = load ptr, ptr %4, align 8
  %22 = getelementptr inbounds %struct.CharRange, ptr %21, i32 0, i32 4
  %23 = load ptr, ptr %22, align 8
  %24 = load ptr, ptr %4, align 8
  %25 = getelementptr inbounds %struct.CharRange, ptr %24, i32 0, i32 3
  %26 = load ptr, ptr %25, align 8
  %27 = load ptr, ptr %4, align 8
  %28 = getelementptr inbounds %struct.CharRange, ptr %27, i32 0, i32 2
  %29 = load ptr, ptr %28, align 8
  %30 = load i32, ptr %6, align 4
  %31 = sext i32 %30 to i64
  %32 = mul i64 %31, 4
  %33 = call ptr %23(ptr noundef %26, ptr noundef %29, i64 noundef %32)
  store ptr %33, ptr %7, align 8
  %34 = load ptr, ptr %7, align 8
  %35 = icmp ne ptr %34, null
  br i1 %35, label %37, label %36

36:                                               ; preds = %13
  store i32 -1, ptr %3, align 4
  br label %45

37:                                               ; preds = %13
  %38 = load ptr, ptr %7, align 8
  %39 = load ptr, ptr %4, align 8
  %40 = getelementptr inbounds %struct.CharRange, ptr %39, i32 0, i32 2
  store ptr %38, ptr %40, align 8
  %41 = load i32, ptr %6, align 4
  %42 = load ptr, ptr %4, align 8
  %43 = getelementptr inbounds %struct.CharRange, ptr %42, i32 0, i32 1
  store i32 %41, ptr %43, align 4
  br label %44

44:                                               ; preds = %37, %2
  store i32 0, ptr %3, align 4
  br label %45

45:                                               ; preds = %44, %36
  %46 = load i32, ptr %3, align 4
  ret i32 %46
}