; Function Attrs: nounwind uwtable
define dso_local noundef i32 @cr_realloc(ptr nocapture noundef %0, i32 noundef %1) local_unnamed_addr #5 {
  %3 = getelementptr inbounds i8, ptr %0, i64 4
  %4 = load i32, ptr %3, align 4
  %5 = icmp slt i32 %4, %1
  br i1 %5, label %6, label %19

6:                                                ; preds = %2
  %7 = mul i32 %4, 3
  %8 = sdiv i32 %7, 2
  %..i = tail call noundef i32 @llvm.smax.i32(i32 %1, i32 %8)
  %9 = getelementptr inbounds i8, ptr %0, i64 24
  %10 = load ptr, ptr %9, align 8
  %11 = getelementptr inbounds i8, ptr %0, i64 16
  %12 = load ptr, ptr %11, align 8
  %13 = getelementptr inbounds i8, ptr %0, i64 8
  %14 = load ptr, ptr %13, align 8
  %15 = sext i32 %..i to i64
  %16 = shl nsw i64 %15, 2
  %17 = tail call ptr %10(ptr noundef %12, ptr noundef %14, i64 noundef %16) #20
  %.not = icmp eq ptr %17, null
  br i1 %.not, label %19, label %18

18:                                               ; preds = %6
  store ptr %17, ptr %13, align 8
  store i32 %..i, ptr %3, align 4
  br label %19

19:                                               ; preds = %2, %18, %6
  %.0 = phi i32 [ -1, %6 ], [ 0, %18 ], [ 0, %2 ]
  ret i32 %.0
}